; Function Attrs: mustprogress nofree norecurse nosync nounwind willreturn memory(read, inaccessiblemem: none) uwtable
define dso_local noundef i64 @_ZNK4llvm11LLVMContext30getDiagnosticsHotnessThresholdEv(ptr noundef nonnull readonly align 8 captures(none) dereferenceable(8) %0) local_unnamed_addr #8 align 2 {
  %2 = load ptr, ptr %0, align 8
  %3 = getelementptr inbounds nuw i8, ptr %2, i64 112
  %4 = getelementptr inbounds nuw i8, ptr %2, i64 120
  %5 = load i8, ptr %4, align 8
  %6 = trunc i8 %5 to i1
  %.val.i = load i64, ptr %3, align 8
  %.0.i = select i1 %6, i64 %.val.i, i64 -1
  ret i64 %.0.i
}